target datalayout = "e-m:e-p270:32:32-p271:32:32-p272:64:64-i64:64-i128:128-f80:128-n8:16:32:64-S128"
target triple = "x86_64-pc-linux-gnu"

; Function Attrs: inlinehint mustprogress nounwind uwtable
define linkonce_odr noundef nonnull align 4 dereferenceable(4) ptr @_ZSt3minIfERKT_S2_S2_(ptr noundef nonnull align 4 dereferenceable(4) %0, ptr noundef nonnull align 4 dereferenceable(4) %1) #10 comdat {
  %3 = alloca ptr, align 8
  %4 = alloca ptr, align 8
  %5 = alloca ptr, align 8
  store ptr %0, ptr %4, align 8, !tbaa !29
  store ptr %1, ptr %5, align 8, !tbaa !29
  %6 = load ptr, ptr %5, align 8, !tbaa !29
  %7 = load float, ptr %6, align 4, !tbaa !31
  %8 = load ptr, ptr %4, align 8, !tbaa !29
  %9 = load float, ptr %8, align 4, !tbaa !31
  %10 = fcmp olt float %7, %9
  br i1 %10, label %11, label %13

11:                                               ; preds = %2
  %12 = load ptr, ptr %5, align 8, !tbaa !29
  store ptr %12, ptr %3, align 8
  br label %15

13:                                               ; preds = %2
  %14 = load ptr, ptr %4, align 8, !tbaa !29
  store ptr %14, ptr %3, align 8
  br label %15

15:                                               ; preds = %13, %11
  %16 = load ptr, ptr %3, align 8
  ret ptr %16
}

; Function Attrs: inlinehint mustprogress nounwind uwtable
define linkonce_odr noundef nonnull align 4 dereferenceable(4) ptr @_ZSt3maxIfERKT_S2_S2_(ptr noundef nonnull align 4 dereferenceable(4) %0, ptr noundef nonnull align 4 dereferenceable(4) %1) #10 comdat {
  %3 = alloca ptr, align 8
  %4 = alloca ptr, align 8
  %5 = alloca ptr, align 8
  store ptr %0, ptr %4, align 8, !tbaa !29
  store ptr %1, ptr %5, align 8, !tbaa !29
  %6 = load ptr, ptr %4, align 8, !tbaa !29
  %7 = load float, ptr %6, align 4, !tbaa !31
  %8 = load ptr, ptr %5, align 8, !tbaa !29
  %9 = load float, ptr %8, align 4, !tbaa !31
  %10 = fcmp olt float %7, %9
  br i1 %10, label %11, label %13

11:                                               ; preds = %2
  %12 = load ptr, ptr %5, align 8, !tbaa !29
  store ptr %12, ptr %3, align 8
  br label %15

13:                                               ; preds = %2
  %14 = load ptr, ptr %4, align 8, !tbaa !29
  store ptr %14, ptr %3, align 8
  br label %15

15:                                               ; preds = %13, %11
  %16 = load ptr, ptr %3, align 8
  ret ptr %16
}

; Function Attrs: inlinehint mustprogress nounwind uwtable
define linkonce_odr noundef float @_ZSt4fabsf(float noundef %0) #10 comdat {
  %2 = alloca float, align 4
  store float %0, ptr %2, align 4, !tbaa !31
  %3 = load float, ptr %2, align 4, !tbaa !31
  %4 = call float @llvm.fabs.f32(float %3)
  ret float %4
}

; Function Attrs: inlinehint mustprogress nounwind uwtable
define linkonce_odr hidden noundef float @_ZN19OpenColorIO_v2_5dev5ClampIfEET_S1_S1_S1_(float noundef %0, float noundef %1, float noundef %2) #10 comdat {
  %4 = alloca float, align 4
  %5 = alloca float, align 4
  %6 = alloca float, align 4
  store float %0, ptr %4, align 4, !tbaa !31
  store float %1, ptr %5, align 4, !tbaa !31
  store float %2, ptr %6, align 4, !tbaa !31
  %7 = call noundef nonnull align 4 dereferenceable(4) ptr @_ZSt3maxIfERKT_S2_S2_(ptr noundef nonnull align 4 dereferenceable(4) %5, ptr noundef nonnull align 4 dereferenceable(4) %4)
  %8 = call noundef nonnull align 4 dereferenceable(4) ptr @_ZSt3minIfERKT_S2_S2_(ptr noundef nonnull align 4 dereferenceable(4) %7, ptr noundef nonnull align 4 dereferenceable(4) %6)
  %9 = load float, ptr %8, align 4, !tbaa !31
  ret float %9
}

; Function Attrs: inlinehint mustprogress nounwind uwtable
define linkonce_odr noundef float @_ZSt5floorf(float noundef %0) #10 comdat {
  %2 = alloca float, align 4
  store float %0, ptr %2, align 4, !tbaa !31
  %3 = load float, ptr %2, align 4, !tbaa !31
  %4 = call float @llvm.floor.f32(float %3)
  ret float %4
}

; Function Attrs: mustprogress uwtable
define hidden void @_ZNK19OpenColorIO_v2_5dev19Renderer_HSV_TO_RGB5applyEPKvPvl(ptr noundef nonnull align 8 dereferenceable(8) %0, ptr noundef %1, ptr noundef %2, i64 noundef %3) unnamed_addr #6 align 2 {
  %5 = alloca ptr, align 8
  %6 = alloca ptr, align 8
  %7 = alloca ptr, align 8
  %8 = alloca i64, align 8
  %9 = alloca ptr, align 8
  %10 = alloca ptr, align 8
  %11 = alloca i64, align 8
  %12 = alloca float, align 4
  %13 = alloca float, align 4
  %14 = alloca float, align 4
  %15 = alloca float, align 4
  %16 = alloca float, align 4
  %17 = alloca float, align 4
  %18 = alloca float, align 4
  %19 = alloca float, align 4
  %20 = alloca float, align 4
  %21 = alloca float, align 4
  store ptr %0, ptr %5, align 8, !tbaa !167
  store ptr %1, ptr %6, align 8, !tbaa !26
  store ptr %2, ptr %7, align 8, !tbaa !26
  store i64 %3, ptr %8, align 8, !tbaa !27
  call void @llvm.lifetime.start.p0(i64 8, ptr %9) #3
  %22 = load ptr, ptr %6, align 8, !tbaa !26
  store ptr %22, ptr %9, align 8, !tbaa !29
  call void @llvm.lifetime.start.p0(i64 8, ptr %10) #3
  %23 = load ptr, ptr %7, align 8, !tbaa !26
  store ptr %23, ptr %10, align 8, !tbaa !29
  call void @llvm.lifetime.start.p0(i64 8, ptr %11) #3
  store i64 0, ptr %11, align 8, !tbaa !27
  br label %24

24:                                               ; preds = %121, %4
  %25 = load i64, ptr %11, align 8, !tbaa !27
  %26 = load i64, ptr %8, align 8, !tbaa !27
  %27 = icmp slt i64 %25, %26
  br i1 %27, label %29, label %28

28:                                               ; preds = %24
  call void @llvm.lifetime.end.p0(i64 8, ptr %11) #3
  br label %124

29:                                               ; preds = %24
  call void @llvm.lifetime.start.p0(i64 4, ptr %12) #3
  store float 0x3FFFFBE760000000, ptr %12, align 4, !tbaa !31
  call void @llvm.lifetime.start.p0(i64 4, ptr %13) #3
  %30 = load ptr, ptr %9, align 8, !tbaa !29
  %31 = getelementptr inbounds float, ptr %30, i64 0
  %32 = load float, ptr %31, align 4, !tbaa !31
  %33 = load ptr, ptr %9, align 8, !tbaa !29
  %34 = getelementptr inbounds float, ptr %33, i64 0
  %35 = load float, ptr %34, align 4, !tbaa !31
  %36 = call noundef float @_ZSt5floorf(float noundef %35)
  %37 = fsub float %32, %36
  %38 = fmul float %37, 6.000000e+00
  store float %38, ptr %13, align 4, !tbaa !31
  call void @llvm.lifetime.start.p0(i64 4, ptr %14) #3
  %39 = load ptr, ptr %9, align 8, !tbaa !29
  %40 = getelementptr inbounds float, ptr %39, i64 1
  %41 = load float, ptr %40, align 4, !tbaa !31
  %42 = call noundef float @_ZN19OpenColorIO_v2_5dev5ClampIfEET_S1_S1_S1_(float noundef %41, float noundef 0.000000e+00, float noundef 0x3FFFFBE760000000)
  store float %42, ptr %14, align 4, !tbaa !31
  call void @llvm.lifetime.start.p0(i64 4, ptr %15) #3
  %43 = load ptr, ptr %9, align 8, !tbaa !29
  %44 = getelementptr inbounds float, ptr %43, i64 2
  %45 = load float, ptr %44, align 4, !tbaa !31
  store float %45, ptr %15, align 4, !tbaa !31
  call void @llvm.lifetime.start.p0(i64 4, ptr %16) #3
  %46 = load float, ptr %13, align 4, !tbaa !31
  %47 = fsub float %46, 3.000000e+00
  %48 = call noundef float @_ZSt4fabsf(float noundef %47)
  %49 = fsub float %48, 1.000000e+00
  %50 = call noundef float @_ZN19OpenColorIO_v2_5dev5ClampIfEET_S1_S1_S1_(float noundef %49, float noundef 0.000000e+00, float noundef 1.000000e+00)
  store float %50, ptr %16, align 4, !tbaa !31
  call void @llvm.lifetime.start.p0(i64 4, ptr %17) #3
  %51 = load float, ptr %13, align 4, !tbaa !31
  %52 = fsub float %51, 2.000000e+00
  %53 = call noundef float @_ZSt4fabsf(float noundef %52)
  %54 = fsub float 2.000000e+00, %53
  %55 = call noundef float @_ZN19OpenColorIO_v2_5dev5ClampIfEET_S1_S1_S1_(float noundef %54, float noundef 0.000000e+00, float noundef 1.000000e+00)
  store float %55, ptr %17, align 4, !tbaa !31
  call void @llvm.lifetime.start.p0(i64 4, ptr %18) #3
  %56 = load float, ptr %13, align 4, !tbaa !31
  %57 = fsub float %56, 4.000000e+00
  %58 = call noundef float @_ZSt4fabsf(float noundef %57)
  %59 = fsub float 2.000000e+00, %58
  %60 = call noundef float @_ZN19OpenColorIO_v2_5dev5ClampIfEET_S1_S1_S1_(float noundef %59, float noundef 0.000000e+00, float noundef 1.000000e+00)
  store float %60, ptr %18, align 4, !tbaa !31
  call void @llvm.lifetime.start.p0(i64 4, ptr %19) #3
  %61 = load float, ptr %15, align 4, !tbaa !31
  store float %61, ptr %19, align 4, !tbaa !31
  call void @llvm.lifetime.start.p0(i64 4, ptr %20) #3
  %62 = load float, ptr %15, align 4, !tbaa !31
  %63 = load float, ptr %14, align 4, !tbaa !31
  %64 = fsub float 1.000000e+00, %63
  %65 = fmul float %62, %64
  store float %65, ptr %20, align 4, !tbaa !31
  %66 = load float, ptr %14, align 4, !tbaa !31
  %67 = fcmp ogt float %66, 1.000000e+00
  br i1 %67, label %68, label %79

68:                                               ; preds = %29
  %69 = load float, ptr %15, align 4, !tbaa !31
  %70 = load float, ptr %14, align 4, !tbaa !31
  %71 = fsub float 1.000000e+00, %70
  %72 = fmul float %69, %71
  %73 = load float, ptr %14, align 4, !tbaa !31
  %74 = fsub float 2.000000e+00, %73
  %75 = fdiv float %72, %74
  store float %75, ptr %20, align 4, !tbaa !31
  %76 = load float, ptr %15, align 4, !tbaa !31
  %77 = load float, ptr %20, align 4, !tbaa !31
  %78 = fsub float %76, %77
  store float %78, ptr %19, align 4, !tbaa !31
  br label %79

79:                                               ; preds = %68, %29
  %80 = load float, ptr %15, align 4, !tbaa !31
  %81 = fcmp olt float %80, 0.000000e+00
  br i1 %81, label %82, label %90

82:                                               ; preds = %79
  %83 = load float, ptr %15, align 4, !tbaa !31
  %84 = load float, ptr %14, align 4, !tbaa !31
  %85 = fsub float 2.000000e+00, %84
  %86 = fdiv float %83, %85
  store float %86, ptr %20, align 4, !tbaa !31
  %87 = load float, ptr %15, align 4, !tbaa !31
  %88 = load float, ptr %20, align 4, !tbaa !31
  %89 = fsub float %87, %88
  store float %89, ptr %19, align 4, !tbaa !31
  br label %90

90:                                               ; preds = %82, %79
  call void @llvm.lifetime.start.p0(i64 4, ptr %21) #3
  %91 = load float, ptr %19, align 4, !tbaa !31
  %92 = load float, ptr %20, align 4, !tbaa !31
  %93 = fsub float %91, %92
  store float %93, ptr %21, align 4, !tbaa !31
  %94 = load float, ptr %16, align 4, !tbaa !31
  %95 = load float, ptr %21, align 4, !tbaa !31
  %96 = load float, ptr %20, align 4, !tbaa !31
  %97 = call float @llvm.fmuladd.f32(float %94, float %95, float %96)
  %98 = load ptr, ptr %10, align 8, !tbaa !29
  %99 = getelementptr inbounds float, ptr %98, i64 0
  store float %97, ptr %99, align 4, !tbaa !31
  %100 = load float, ptr %17, align 4, !tbaa !31
  %101 = load float, ptr %21, align 4, !tbaa !31
  %102 = load float, ptr %20, align 4, !tbaa !31
  %103 = call float @llvm.fmuladd.f32(float %100, float %101, float %102)
  %104 = load ptr, ptr %10, align 8, !tbaa !29
  %105 = getelementptr inbounds float, ptr %104, i64 1
  store float %103, ptr %105, align 4, !tbaa !31
  %106 = load float, ptr %18, align 4, !tbaa !31
  %107 = load float, ptr %21, align 4, !tbaa !31
  %108 = load float, ptr %20, align 4, !tbaa !31
  %109 = call float @llvm.fmuladd.f32(float %106, float %107, float %108)
  %110 = load ptr, ptr %10, align 8, !tbaa !29
  %111 = getelementptr inbounds float, ptr %110, i64 2
  store float %109, ptr %111, align 4, !tbaa !31
  %112 = load ptr, ptr %9, align 8, !tbaa !29
  %113 = getelementptr inbounds float, ptr %112, i64 3
  %114 = load float, ptr %113, align 4, !tbaa !31
  %115 = load ptr, ptr %10, align 8, !tbaa !29
  %116 = getelementptr inbounds float, ptr %115, i64 3
  store float %114, ptr %116, align 4, !tbaa !31
  %117 = load ptr, ptr %9, align 8, !tbaa !29
  %118 = getelementptr inbounds float, ptr %117, i64 4
  store ptr %118, ptr %9, align 8, !tbaa !29
  %119 = load ptr, ptr %10, align 8, !tbaa !29
  %120 = getelementptr inbounds float, ptr %119, i64 4
  store ptr %120, ptr %10, align 8, !tbaa !29
  call void @llvm.lifetime.end.p0(i64 4, ptr %21) #3
  call void @llvm.lifetime.end.p0(i64 4, ptr %20) #3
  call void @llvm.lifetime.end.p0(i64 4, ptr %19) #3
  call void @llvm.lifetime.end.p0(i64 4, ptr %18) #3
  call void @llvm.lifetime.end.p0(i64 4, ptr %17) #3
  call void @llvm.lifetime.end.p0(i64 4, ptr %16) #3
  call void @llvm.lifetime.end.p0(i64 4, ptr %15) #3
  call void @llvm.lifetime.end.p0(i64 4, ptr %14) #3
  call void @llvm.lifetime.end.p0(i64 4, ptr %13) #3
  call void @llvm.lifetime.end.p0(i64 4, ptr %12) #3
  br label %121

121:                                              ; preds = %90
  %122 = load i64, ptr %11, align 8, !tbaa !27
  %123 = add nsw i64 %122, 1
  store i64 %123, ptr %11, align 8, !tbaa !27
  br label %24, !llvm.loop !169

124:                                              ; preds = %28
  call void @llvm.lifetime.end.p0(i64 8, ptr %10) #3
  call void @llvm.lifetime.end.p0(i64 8, ptr %9) #3
  ret void
}