; Function Attrs: mustprogress nofree norecurse nosync nounwind memory(argmem: readwrite) uwtable
define hidden void @_ZNK19OpenColorIO_v2_5dev19Renderer_HSV_TO_RGB5applyEPKvPvl(ptr nonnull readnone align 8 captures(none) %0, ptr noundef readonly captures(none) %1, ptr noundef writeonly captures(none) %2, i64 noundef %3) unnamed_addr #13 align 2 {
  %5 = icmp sgt i64 %3, 0
  br i1 %5, label %.lr.ph, label %._crit_edge

._crit_edge:                                      ; preds = %.lr.ph, %4
  ret void

.lr.ph:                                           ; preds = %4, %.lr.ph
  %.058 = phi ptr [ %49, %.lr.ph ], [ %1, %4 ]
  %.04657 = phi ptr [ %50, %.lr.ph ], [ %2, %4 ]
  %.04756 = phi i64 [ %51, %.lr.ph ], [ 0, %4 ]
  %6 = load float, ptr %.058, align 4, !tbaa !13
  %7 = tail call noundef float @llvm.floor.f32(float %6)
  %8 = fsub float %6, %7
  %9 = fmul float %8, 6.000000e+00
  %10 = getelementptr inbounds nuw i8, ptr %.058, i64 4
  %11 = load float, ptr %10, align 4, !tbaa !13
  %12 = fcmp ogt float %11, 0.000000e+00
  %.sroa.speculated2.i = select i1 %12, float %11, float 0.000000e+00
  %13 = fcmp ogt float %.sroa.speculated2.i, 0x3FFFFBE760000000
  %.sroa.speculated.i = select i1 %13, float 0x3FFFFBE760000000, float %.sroa.speculated2.i
  %14 = getelementptr inbounds nuw i8, ptr %.058, i64 8
  %15 = load float, ptr %14, align 4, !tbaa !13
  %16 = fadd float %9, -3.000000e+00
  %17 = tail call noundef float @llvm.fabs.f32(float %16)
  %18 = fadd float %17, -1.000000e+00
  %19 = fcmp ogt float %18, 0.000000e+00
  %.sroa.speculated2.i50 = select i1 %19, float %18, float 0.000000e+00
  %20 = fcmp ogt float %.sroa.speculated2.i50, 1.000000e+00
  %.sroa.speculated.i51 = select i1 %20, float 1.000000e+00, float %.sroa.speculated2.i50
  %21 = fadd float %9, -2.000000e+00
  %22 = tail call noundef float @llvm.fabs.f32(float %21)
  %23 = fsub float 2.000000e+00, %22
  %24 = fcmp ogt float %23, 0.000000e+00
  %.sroa.speculated2.i52 = select i1 %24, float %23, float 0.000000e+00
  %25 = fcmp ogt float %.sroa.speculated2.i52, 1.000000e+00
  %.sroa.speculated.i53 = select i1 %25, float 1.000000e+00, float %.sroa.speculated2.i52
  %26 = fadd float %9, -4.000000e+00
  %27 = tail call noundef float @llvm.fabs.f32(float %26)
  %28 = fsub float 2.000000e+00, %27
  %29 = fcmp ogt float %28, 0.000000e+00
  %.sroa.speculated2.i54 = select i1 %29, float %28, float 0.000000e+00
  %30 = fcmp ogt float %.sroa.speculated2.i54, 1.000000e+00
  %.sroa.speculated.i55 = select i1 %30, float 1.000000e+00, float %.sroa.speculated2.i54
  %31 = fsub float 1.000000e+00, %.sroa.speculated.i
  %32 = fmul float %15, %31
  %33 = fcmp ogt float %.sroa.speculated.i, 1.000000e+00
  %34 = fsub float 2.000000e+00, %.sroa.speculated.i
  %35 = fdiv float %32, %34
  %36 = fsub float %15, %35
  %.044 = select i1 %33, float %36, float %15
  %.043 = select i1 %33, float %35, float %32
  %37 = fcmp olt float %15, 0.000000e+00
  %38 = fdiv float %15, %34
  %39 = fsub float %15, %38
  %.145 = select i1 %37, float %39, float %.044
  %.1 = select i1 %37, float %38, float %.043
  %40 = fsub float %.145, %.1
  %41 = tail call float @llvm.fmuladd.f32(float %.sroa.speculated.i51, float %40, float %.1)
  store float %41, ptr %.04657, align 4, !tbaa !13
  %42 = tail call float @llvm.fmuladd.f32(float %.sroa.speculated.i53, float %40, float %.1)
  %43 = getelementptr inbounds nuw i8, ptr %.04657, i64 4
  store float %42, ptr %43, align 4, !tbaa !13
  %44 = tail call float @llvm.fmuladd.f32(float %.sroa.speculated.i55, float %40, float %.1)
  %45 = getelementptr inbounds nuw i8, ptr %.04657, i64 8
  store float %44, ptr %45, align 4, !tbaa !13
  %46 = getelementptr inbounds nuw i8, ptr %.058, i64 12
  %47 = load float, ptr %46, align 4, !tbaa !13
  %48 = getelementptr inbounds nuw i8, ptr %.04657, i64 12
  store float %47, ptr %48, align 4, !tbaa !13
  %49 = getelementptr inbounds nuw i8, ptr %.058, i64 16
  %50 = getelementptr inbounds nuw i8, ptr %.04657, i64 16
  %51 = add nuw nsw i64 %.04756, 1
  %exitcond.not = icmp eq i64 %51, %3
  br i1 %exitcond.not, label %._crit_edge, label %.lr.ph, !llvm.loop !119
}